target datalayout = "e-m:e-p270:32:32-p271:32:32-p272:64:64-i64:64-i128:128-f80:128-n8:16:32:64-S128"
target triple = "x86_64-pc-linux-gnu"

%struct.Vec_Int_t_ = type { i32, i32, ptr }

@.str.13 = private unnamed_addr constant [4 x i8] c" 1\0A\00", align 1
@.str.15 = private unnamed_addr constant [4 x i8] c" 0\0A\00", align 1

; Function Attrs: inlinehint nounwind uwtable
define internal i32 @Vec_IntEntry(ptr noundef %0, i32 noundef %1) #4 {
  %3 = alloca ptr, align 8
  %4 = alloca i32, align 4
  store ptr %0, ptr %3, align 8, !tbaa !65
  store i32 %1, ptr %4, align 4, !tbaa !10
  %5 = load ptr, ptr %3, align 8, !tbaa !65
  %6 = getelementptr inbounds nuw %struct.Vec_Int_t_, ptr %5, i32 0, i32 2
  %7 = load ptr, ptr %6, align 8, !tbaa !67
  %8 = load i32, ptr %4, align 4, !tbaa !10
  %9 = sext i32 %8 to i64
  %10 = getelementptr inbounds i32, ptr %7, i64 %9
  %11 = load i32, ptr %10, align 4, !tbaa !10
  ret i32 %11
}

; Function Attrs: inlinehint nounwind uwtable
define internal i32 @Vec_IntSize(ptr noundef %0) #4 {
  %2 = alloca ptr, align 8
  store ptr %0, ptr %2, align 8, !tbaa !65
  %3 = load ptr, ptr %2, align 8, !tbaa !65
  %4 = getelementptr inbounds nuw %struct.Vec_Int_t_, ptr %3, i32 0, i32 1
  %5 = load i32, ptr %4, align 4, !tbaa !66
  ret i32 %5
}

; Function Attrs: nounwind uwtable
define ptr @Io_NtkWriteEdgelistDeriveSop(ptr noundef %0, i64 noundef %1, i32 noundef %2, ptr noundef %3) #0 {
  %5 = alloca ptr, align 8
  %6 = alloca ptr, align 8
  %7 = alloca i64, align 8
  %8 = alloca i32, align 4
  %9 = alloca ptr, align 8
  %10 = alloca ptr, align 8
  %11 = alloca i32, align 4
  %12 = alloca ptr, align 8
  %13 = alloca ptr, align 8
  %14 = alloca i32, align 4
  store ptr %0, ptr %6, align 8, !tbaa !61
  store i64 %1, ptr %7, align 8, !tbaa !63
  store i32 %2, ptr %8, align 4, !tbaa !10
  store ptr %3, ptr %9, align 8, !tbaa !65
  call void @llvm.lifetime.start.p0(i64 8, ptr %10) #8
  call void @llvm.lifetime.start.p0(i64 4, ptr %11) #8
  %15 = load i32, ptr %8, align 4, !tbaa !10
  %16 = load ptr, ptr %9, align 8, !tbaa !65
  %17 = call i32 @Kit_TruthIsop(ptr noundef %7, i32 noundef %15, ptr noundef %16, i32 noundef 1)
  store i32 %17, ptr %11, align 4, !tbaa !10
  %18 = load ptr, ptr %9, align 8, !tbaa !65
  %19 = call i32 @Vec_IntSize(ptr noundef %18)
  %20 = icmp eq i32 %19, 0
  br i1 %20, label %29, label %21

21:                                               ; preds = %4
  %22 = load ptr, ptr %9, align 8, !tbaa !65
  %23 = call i32 @Vec_IntSize(ptr noundef %22)
  %24 = icmp eq i32 %23, 1
  br i1 %24, label %25, label %39

25:                                               ; preds = %21
  %26 = load ptr, ptr %9, align 8, !tbaa !65
  %27 = call i32 @Vec_IntEntry(ptr noundef %26, i32 noundef 0)
  %28 = icmp eq i32 %27, 0
  br i1 %28, label %29, label %39

29:                                               ; preds = %25, %4
  call void @llvm.lifetime.start.p0(i64 8, ptr %12) #8
  store ptr @.str.15, ptr %12, align 8, !tbaa !8
  call void @llvm.lifetime.start.p0(i64 8, ptr %13) #8
  store ptr @.str.13, ptr %13, align 8, !tbaa !8
  %30 = load ptr, ptr %9, align 8, !tbaa !65
  %31 = call i32 @Vec_IntSize(ptr noundef %30)
  %32 = icmp eq i32 %31, 0
  br i1 %32, label %33, label %35

33:                                               ; preds = %29
  %34 = load ptr, ptr %12, align 8, !tbaa !8
  br label %37

35:                                               ; preds = %29
  %36 = load ptr, ptr %13, align 8, !tbaa !8
  br label %37

37:                                               ; preds = %35, %33
  %38 = phi ptr [ %34, %33 ], [ %36, %35 ]
  store ptr %38, ptr %5, align 8
  store i32 1, ptr %14, align 4
  call void @llvm.lifetime.end.p0(i64 8, ptr %13) #8
  call void @llvm.lifetime.end.p0(i64 8, ptr %12) #8
  br label %50

39:                                               ; preds = %25, %21
  %40 = load ptr, ptr %6, align 8, !tbaa !61
  %41 = load i32, ptr %8, align 4, !tbaa !10
  %42 = load ptr, ptr %9, align 8, !tbaa !65
  %43 = call ptr @Abc_SopCreateFromIsop(ptr noundef %40, i32 noundef %41, ptr noundef %42)
  store ptr %43, ptr %10, align 8, !tbaa !8
  %44 = load i32, ptr %11, align 4, !tbaa !10
  %45 = icmp ne i32 %44, 0
  br i1 %45, label %46, label %48

46:                                               ; preds = %39
  %47 = load ptr, ptr %10, align 8, !tbaa !8
  call void @Abc_SopComplement(ptr noundef %47)
  br label %48

48:                                               ; preds = %46, %39
  %49 = load ptr, ptr %10, align 8, !tbaa !8
  store ptr %49, ptr %5, align 8
  store i32 1, ptr %14, align 4
  br label %50

50:                                               ; preds = %48, %37
  call void @llvm.lifetime.end.p0(i64 4, ptr %11) #8
  call void @llvm.lifetime.end.p0(i64 8, ptr %10) #8
  %51 = load ptr, ptr %5, align 8
  ret ptr %51
}