; Function Attrs: nounwind uwtable
define ptr @Io_NtkWriteEdgelistDeriveSop(ptr noundef %0, i64 noundef %1, i32 noundef %2, ptr noundef %3) local_unnamed_addr #0 {
  %5 = alloca i64, align 8
  store i64 %1, ptr %5, align 8, !tbaa !68
  %6 = call i32 @Kit_TruthIsop(ptr noundef nonnull %5, i32 noundef %2, ptr noundef %3, i32 noundef 1) #11
  %7 = getelementptr i8, ptr %3, i64 4
  %.val = load i32, ptr %7, align 4, !tbaa !57
  switch i32 %.val, label %11 [
    i32 0, label %14
    i32 1, label %8
  ]

8:                                                ; preds = %4
  %9 = getelementptr i8, ptr %3, i64 8
  %.val16 = load ptr, ptr %9, align 8, !tbaa !70
  %.val16.val = load i32, ptr %.val16, align 4, !tbaa !26
  %10 = icmp eq i32 %.val16.val, 0
  br i1 %10, label %14, label %11

11:                                               ; preds = %4, %8
  %12 = call ptr @Abc_SopCreateFromIsop(ptr noundef %0, i32 noundef %2, ptr noundef nonnull %3) #11
  %.not = icmp eq i32 %6, 0
  br i1 %.not, label %14, label %13

13:                                               ; preds = %11
  call void @Abc_SopComplement(ptr noundef %12) #11
  br label %14

14:                                               ; preds = %8, %4, %11, %13
  %.0 = phi ptr [ %12, %13 ], [ %12, %11 ], [ @.str.13, %8 ], [ @.str.15, %4 ]
  ret ptr %.0
}